; Function Attrs: mustprogress nofree norecurse nosync nounwind willreturn memory(read, argmem: readwrite, inaccessiblemem: none) uwtable
define noundef i32 @_ZN3net14StrikeRegister19GetFreeExternalNodeEv(ptr noundef nonnull align 8 captures(none) dereferenceable(56) %0) local_unnamed_addr #12 align 2 {
  %2 = getelementptr inbounds nuw i8, ptr %0, i64 28
  %3 = load i32, ptr %2, align 4, !tbaa !25
  %4 = getelementptr inbounds nuw i8, ptr %0, i64 48
  %5 = mul i32 %3, 24
  %6 = zext i32 %5 to i64
  %7 = load ptr, ptr %4, align 8, !tbaa !23
  %8 = getelementptr inbounds nuw i8, ptr %7, i64 %6
  %9 = load i32, ptr %8, align 4, !tbaa !3
  store i32 %9, ptr %2, align 4, !tbaa !25
  ret i32 %3
}